; Function Attrs: nounwind uwtable
define noalias noundef ptr @Gia_ManComputeSlacks(ptr noundef captures(none) %0) local_unnamed_addr #2 {
  %2 = tail call i32 @Gia_ManLevelNum(ptr noundef %0)
  %3 = tail call ptr @Gia_ManReverseLevel(ptr noundef %0)
  %4 = getelementptr i8, ptr %0, i64 24
  %.val = load i32, ptr %4, align 8
  %5 = tail call noalias dereferenceable_or_null(16) ptr @malloc(i64 noundef 16) #40
  %6 = add i32 %.val, -1
  %or.cond.i = icmp ult i32 %6, 15
  %spec.store.select.i = select i1 %or.cond.i, i32 16, i32 %.val
  %7 = getelementptr inbounds nuw i8, ptr %5, i64 4
  store i32 0, ptr %7, align 4
  store i32 %spec.store.select.i, ptr %5, align 8
  %.not.i = icmp eq i32 %spec.store.select.i, 0
  br i1 %.not.i, label %Vec_IntAlloc.exit, label %8

8:                                                ; preds = %1
  %9 = sext i32 %spec.store.select.i to i64
  %10 = shl nsw i64 %9, 2
  %11 = tail call noalias ptr @malloc(i64 noundef %10) #40
  br label %Vec_IntAlloc.exit

Vec_IntAlloc.exit:                                ; preds = %1, %8
  %12 = phi ptr [ %11, %8 ], [ null, %1 ]
  %13 = getelementptr inbounds nuw i8, ptr %5, i64 8
  store ptr %12, ptr %13, align 8
  %14 = getelementptr i8, ptr %0, i64 32
  %15 = icmp sgt i32 %.val, 0
  br i1 %15, label %.lr.ph, label %.critedge

.lr.ph:                                           ; preds = %Vec_IntAlloc.exit
  %16 = getelementptr i8, ptr %0, i64 160
  %17 = getelementptr i8, ptr %3, i64 8
  br label %18

18:                                               ; preds = %.lr.ph, %Vec_IntPush.exit
  %indvars.iv = phi i64 [ 0, %.lr.ph ], [ %indvars.iv.next, %Vec_IntPush.exit ]
  %.val15 = load ptr, ptr %14, align 8
  %.not = icmp eq ptr %.val15, null
  br i1 %.not, label %.critedge, label %19

19:                                               ; preds = %18
  %.val17 = load ptr, ptr %16, align 8
  %indvars.iv.next = add nuw nsw i64 %indvars.iv, 1
  %20 = trunc nuw nsw i64 %indvars.iv.next to i32
  tail call fastcc void @Vec_IntFillExtra(ptr noundef %.val17, i32 noundef %20)
  %21 = getelementptr i8, ptr %.val17, i64 8
  %.val.i.i = load ptr, ptr %21, align 8
  %22 = getelementptr inbounds nuw i32, ptr %.val.i.i, i64 %indvars.iv
  %23 = load i32, ptr %22, align 4
  %.val16 = load ptr, ptr %17, align 8
  %24 = getelementptr inbounds nuw i32, ptr %.val16, i64 %indvars.iv
  %25 = load i32, ptr %24, align 4
  %26 = add i32 %23, %25
  %27 = sub i32 %2, %26
  %28 = load i32, ptr %7, align 4
  %29 = load i32, ptr %5, align 8
  %30 = icmp eq i32 %28, %29
  br i1 %30, label %31, label %.Vec_IntGrow.exit10_crit_edge.i

.Vec_IntGrow.exit10_crit_edge.i:                  ; preds = %19
  %.pre.i = load ptr, ptr %13, align 8
  br label %Vec_IntPush.exit

31:                                               ; preds = %19
  %32 = icmp slt i32 %28, 16
  br i1 %32, label %33, label %40

33:                                               ; preds = %31
  %34 = load ptr, ptr %13, align 8
  %.not9.i.i = icmp eq ptr %34, null
  br i1 %.not9.i.i, label %37, label %35

35:                                               ; preds = %33
  %36 = tail call dereferenceable_or_null(64) ptr @realloc(ptr noundef nonnull %34, i64 noundef 64) #39
  br label %Vec_IntGrow.exit.i

37:                                               ; preds = %33
  %38 = tail call noalias dereferenceable_or_null(64) ptr @malloc(i64 noundef 64) #40
  br label %Vec_IntGrow.exit.i

Vec_IntGrow.exit.i:                               ; preds = %37, %35
  %39 = phi ptr [ %36, %35 ], [ %38, %37 ]
  store ptr %39, ptr %13, align 8
  store i32 16, ptr %5, align 8
  br label %Vec_IntPush.exit

40:                                               ; preds = %31
  %41 = shl nuw nsw i32 %28, 1
  %42 = load ptr, ptr %13, align 8
  %.not9.i9.i = icmp eq ptr %42, null
  %43 = zext nneg i32 %41 to i64
  %44 = shl nuw nsw i64 %43, 2
  br i1 %.not9.i9.i, label %47, label %45

45:                                               ; preds = %40
  %46 = tail call ptr @realloc(ptr noundef nonnull %42, i64 noundef %44) #39
  br label %49

47:                                               ; preds = %40
  %48 = tail call noalias ptr @malloc(i64 noundef %44) #40
  br label %49

49:                                               ; preds = %47, %45
  %50 = phi ptr [ %46, %45 ], [ %48, %47 ]
  store ptr %50, ptr %13, align 8
  store i32 %41, ptr %5, align 8
  br label %Vec_IntPush.exit

Vec_IntPush.exit:                                 ; preds = %.Vec_IntGrow.exit10_crit_edge.i, %Vec_IntGrow.exit.i, %49
  %51 = phi ptr [ %.pre.i, %.Vec_IntGrow.exit10_crit_edge.i ], [ %50, %49 ], [ %39, %Vec_IntGrow.exit.i ]
  %52 = add nsw i32 %28, 1
  store i32 %52, ptr %7, align 4
  %53 = sext i32 %28 to i64
  %54 = getelementptr inbounds i32, ptr %51, i64 %53
  store i32 %27, ptr %54, align 4
  %55 = load i32, ptr %4, align 8
  %56 = sext i32 %55 to i64
  %57 = icmp slt i64 %indvars.iv.next, %56
  br i1 %57, label %18, label %.critedge, !llvm.loop !31

.critedge:                                        ; preds = %18, %Vec_IntPush.exit, %Vec_IntAlloc.exit
  %58 = getelementptr inbounds nuw i8, ptr %3, i64 8
  %59 = load ptr, ptr %58, align 8
  %.not.i18 = icmp eq ptr %59, null
  br i1 %.not.i18, label %Vec_IntFree.exit, label %60

60:                                               ; preds = %.critedge
  tail call void @free(ptr noundef nonnull %59) #36
  br label %Vec_IntFree.exit

Vec_IntFree.exit:                                 ; preds = %.critedge, %60
  tail call void @free(ptr noundef nonnull %3) #36
  ret ptr %5
}